; Function Attrs: nounwind uwtable
define void @avio_wb16(ptr noundef captures(none) %0, i32 noundef %1) local_unnamed_addr #3 {
  %3 = lshr i32 %1, 8
  %4 = trunc i32 %3 to i8
  %5 = getelementptr inbounds nuw i8, ptr %0, i64 24
  %6 = load ptr, ptr %5, align 8, !tbaa !16
  %7 = getelementptr inbounds nuw i8, ptr %6, i64 1
  store ptr %7, ptr %5, align 8, !tbaa !16
  store i8 %4, ptr %6, align 1, !tbaa !33
  %8 = load ptr, ptr %5, align 8, !tbaa !16
  %9 = getelementptr inbounds nuw i8, ptr %0, i64 32
  %10 = load ptr, ptr %9, align 8, !tbaa !19
  %.not.i = icmp ult ptr %8, %10
  br i1 %.not.i, label %avio_w8.exit, label %11

11:                                               ; preds = %2
  tail call fastcc void @flush_buffer(ptr noundef nonnull %0)
  %.pre = load ptr, ptr %5, align 8, !tbaa !16
  br label %avio_w8.exit

avio_w8.exit:                                     ; preds = %2, %11
  %12 = phi ptr [ %8, %2 ], [ %.pre, %11 ]
  %13 = trunc i32 %1 to i8
  %14 = getelementptr inbounds nuw i8, ptr %12, i64 1
  store ptr %14, ptr %5, align 8, !tbaa !16
  store i8 %13, ptr %12, align 1, !tbaa !33
  %15 = load ptr, ptr %5, align 8, !tbaa !16
  %16 = load ptr, ptr %9, align 8, !tbaa !19
  %.not.i3 = icmp ult ptr %15, %16
  br i1 %.not.i3, label %avio_w8.exit4, label %17

17:                                               ; preds = %avio_w8.exit
  tail call fastcc void @flush_buffer(ptr noundef nonnull %0)
  br label %avio_w8.exit4

avio_w8.exit4:                                    ; preds = %avio_w8.exit, %17
  ret void
}